; Function Attrs: nounwind uwtable
define dso_local noundef ptr @list_delete_cell(ptr noundef %0, ptr noundef %1) local_unnamed_addr #0 {
  %3 = getelementptr inbounds nuw i8, ptr %0, i64 16
  %4 = load ptr, ptr %3, align 8
  %5 = getelementptr inbounds nuw i8, ptr %0, i64 4
  %6 = load i32, ptr %5, align 4
  %7 = icmp eq i32 %6, 1
  br i1 %7, label %8, label %11

8:                                                ; preds = %2
  %9 = getelementptr inbounds nuw i8, ptr %0, i64 24
  %.not.i.i.i = icmp eq ptr %4, %9
  br i1 %.not.i.i.i, label %list_free.exit.i, label %10

10:                                               ; preds = %8
  tail call void @pfree(ptr noundef %4) #9
  br label %list_free.exit.i

list_free.exit.i:                                 ; preds = %10, %8
  tail call void @pfree(ptr noundef nonnull %0) #9
  br label %list_delete_nth_cell.exit

11:                                               ; preds = %2
  %12 = ptrtoint ptr %1 to i64
  %13 = ptrtoint ptr %4 to i64
  %14 = sub i64 %12, %13
  %15 = lshr exact i64 %14, 3
  %16 = trunc i64 %15 to i32
  %sext = shl i64 %14, 29
  %17 = ashr i64 %sext, 32
  %18 = getelementptr inbounds %union.ListCell, ptr %4, i64 %17
  %sext3 = add i64 %sext, 4294967296
  %19 = ashr i64 %sext3, 32
  %20 = getelementptr inbounds %union.ListCell, ptr %4, i64 %19
  %21 = xor i32 %16, -1
  %22 = add i32 %6, %21
  %23 = sext i32 %22 to i64
  %24 = shl nsw i64 %23, 3
  tail call void @llvm.memmove.p0.p0.i64(ptr align 8 %18, ptr align 8 %20, i64 %24, i1 false)
  %25 = load i32, ptr %5, align 4
  %26 = add i32 %25, -1
  store i32 %26, ptr %5, align 4
  br label %list_delete_nth_cell.exit

list_delete_nth_cell.exit:                        ; preds = %list_free.exit.i, %11
  %.0.i = phi ptr [ null, %list_free.exit.i ], [ %0, %11 ]
  ret ptr %.0.i
}